target datalayout = "e-m:e-p270:32:32-p271:32:32-p272:64:64-i64:64-i128:128-f80:128-n8:16:32:64-S128"
target triple = "x86_64-unknown-linux-gnu"

%struct.ChardevReturn = type { ptr }

@.str.34 = private unnamed_addr constant [4 x i8] c"pty\00", align 1

; Function Attrs: nounwind sspstrong uwtable
define dso_local zeroext i1 @visit_type_ChardevReturn_members(ptr noundef %v, ptr noundef %obj, ptr noundef %errp) #0 {
entry:
  %retval = alloca i1, align 1
  %v.addr = alloca ptr, align 8
  %obj.addr = alloca ptr, align 8
  %errp.addr = alloca ptr, align 8
  %has_pty = alloca i8, align 1
  store ptr %v, ptr %v.addr, align 8
  store ptr %obj, ptr %obj.addr, align 8
  store ptr %errp, ptr %errp.addr, align 8
  %0 = load ptr, ptr %obj.addr, align 8
  %pty = getelementptr inbounds %struct.ChardevReturn, ptr %0, i32 0, i32 0
  %1 = load ptr, ptr %pty, align 8
  %tobool = icmp ne ptr %1, null
  %lnot = xor i1 %tobool, true
  %lnot1 = xor i1 %lnot, true
  %frombool = zext i1 %lnot1 to i8
  store i8 %frombool, ptr %has_pty, align 1
  %2 = load ptr, ptr %v.addr, align 8
  %call = call zeroext i1 @visit_optional(ptr noundef %2, ptr noundef @.str.34, ptr noundef %has_pty)
  br i1 %call, label %if.then, label %if.end5

if.then:                                          ; preds = %entry
  %3 = load ptr, ptr %v.addr, align 8
  %4 = load ptr, ptr %obj.addr, align 8
  %pty2 = getelementptr inbounds %struct.ChardevReturn, ptr %4, i32 0, i32 0
  %5 = load ptr, ptr %errp.addr, align 8
  %call3 = call zeroext i1 @visit_type_str(ptr noundef %3, ptr noundef @.str.34, ptr noundef %pty2, ptr noundef %5)
  br i1 %call3, label %if.end, label %if.then4

if.then4:                                         ; preds = %if.then
  store i1 false, ptr %retval, align 1
  br label %return

if.end:                                           ; preds = %if.then
  br label %if.end5

if.end5:                                          ; preds = %if.end, %entry
  store i1 true, ptr %retval, align 1
  br label %return

return:                                           ; preds = %if.end5, %if.then4
  %6 = load i1, ptr %retval, align 1
  ret i1 %6
}