; Function Attrs: nounwind sspstrong uwtable
define dso_local noundef zeroext i1 @visit_type_ChardevReturn_members(ptr noundef %v, ptr noundef %obj, ptr noundef %errp) local_unnamed_addr #0 {
entry:
  %has_pty = alloca i8, align 1
  %0 = load ptr, ptr %obj, align 8
  %tobool = icmp ne ptr %0, null
  %frombool = zext i1 %tobool to i8
  store i8 %frombool, ptr %has_pty, align 1
  %call = call zeroext i1 @visit_optional(ptr noundef %v, ptr noundef nonnull @.str.34, ptr noundef nonnull %has_pty) #5
  br i1 %call, label %if.then, label %if.end5

if.then:                                          ; preds = %entry
  %call3 = call zeroext i1 @visit_type_str(ptr noundef %v, ptr noundef nonnull @.str.34, ptr noundef nonnull %obj, ptr noundef %errp) #5
  br i1 %call3, label %if.end5, label %return

if.end5:                                          ; preds = %if.then, %entry
  br label %return

return:                                           ; preds = %if.then, %if.end5
  %retval.0 = phi i1 [ true, %if.end5 ], [ false, %if.then ]
  ret i1 %retval.0
}